target datalayout = "e-m:e-p270:32:32-p271:32:32-p272:64:64-i64:64-i128:128-f80:128-n8:16:32:64-S128"
target triple = "x86_64-pc-linux-gnu"

%struct._GSList = type { ptr, ptr }
%struct._dcerpc_info = type { ptr, i32, i64, i8, i8, i8, i32, i32, i32, i32, i32, i32, i32, i32, ptr, ptr, ptr, ptr, %struct.anon }
%struct.anon = type { i8, ptr, ptr, ptr, i8 }
%struct.ndr_pointer_data = type { i32, ptr, ptr, ptr, i32, ptr, ptr }

@.str.1 = private unnamed_addr constant [29 x i8] c"%s:%u: failed assertion \22%s\22\00", align 1
@.str.2 = private unnamed_addr constant [32 x i8] c"epan/dissectors/packet-dcerpc.c\00", align 1
@.str.12 = private unnamed_addr constant [44 x i8] c"(offset-old_offset) == di->conformant_eaten\00", align 1
@.str.13 = private unnamed_addr constant [57 x i8] c"original_depth == g_slist_length(di->pointers.list_list)\00", align 1

; Function Attrs: null_pointer_is_valid sspstrong uwtable
define hidden i32 @dissect_deferred_pointers(ptr noundef %0, ptr noundef %1, i32 noundef %2, ptr noundef %3, ptr noundef %4) #0 {
  %6 = alloca i32, align 4
  %7 = alloca ptr, align 8
  %8 = alloca ptr, align 8
  %9 = alloca i32, align 4
  %10 = alloca ptr, align 8
  %11 = alloca ptr, align 8
  %12 = alloca i32, align 4
  %13 = alloca i32, align 4
  %14 = alloca i32, align 4
  %15 = alloca i32, align 4
  %16 = alloca i32, align 4
  %17 = alloca ptr, align 8
  %18 = alloca i32, align 4
  %19 = alloca i32, align 4
  %20 = alloca ptr, align 8
  %21 = alloca ptr, align 8
  %22 = alloca ptr, align 8
  %23 = alloca ptr, align 8
  store ptr %0, ptr %7, align 8
  store ptr %1, ptr %8, align 8
  store i32 %2, ptr %9, align 4
  store ptr %3, ptr %10, align 8
  store ptr %4, ptr %11, align 8
  call void @llvm.lifetime.start.p0(i64 4, ptr %12) #19
  call void @llvm.lifetime.start.p0(i64 4, ptr %13) #19
  call void @llvm.lifetime.start.p0(i64 4, ptr %14) #19
  call void @llvm.lifetime.start.p0(i64 4, ptr %15) #19
  call void @llvm.lifetime.start.p0(i64 4, ptr %16) #19
  call void @llvm.lifetime.start.p0(i64 8, ptr %17) #19
  %24 = load ptr, ptr %10, align 8
  %25 = getelementptr inbounds nuw %struct._dcerpc_info, ptr %24, i32 0, i32 18
  %26 = getelementptr inbounds nuw %struct.anon, ptr %25, i32 0, i32 3
  %27 = load ptr, ptr %26, align 8
  %28 = icmp eq ptr %27, null
  br i1 %28, label %29, label %31

29:                                               ; preds = %5
  %30 = load i32, ptr %9, align 4
  store i32 %30, ptr %6, align 4
  store i32 1, ptr %18, align 4
  br label %270

31:                                               ; preds = %5
  %32 = load ptr, ptr %10, align 8
  %33 = getelementptr inbounds nuw %struct._dcerpc_info, ptr %32, i32 0, i32 18
  %34 = getelementptr inbounds nuw %struct.anon, ptr %33, i32 0, i32 1
  store ptr null, ptr %34, align 8
  store i32 0, ptr %14, align 4
  %35 = load ptr, ptr %10, align 8
  %36 = getelementptr inbounds nuw %struct._dcerpc_info, ptr %35, i32 0, i32 18
  %37 = getelementptr inbounds nuw %struct.anon, ptr %36, i32 0, i32 3
  %38 = load ptr, ptr %37, align 8
  %39 = call ptr @g_slist_last(ptr noundef %38)
  %40 = getelementptr inbounds nuw %struct._GSList, ptr %39, i32 0, i32 0
  %41 = load ptr, ptr %40, align 8
  store ptr %41, ptr %17, align 8
  %42 = load ptr, ptr %10, align 8
  %43 = getelementptr inbounds nuw %struct._dcerpc_info, ptr %42, i32 0, i32 18
  %44 = getelementptr inbounds nuw %struct.anon, ptr %43, i32 0, i32 3
  %45 = load ptr, ptr %44, align 8
  %46 = call i32 @g_slist_length(ptr noundef %45)
  store i32 %46, ptr %15, align 4
  %47 = load ptr, ptr %17, align 8
  %48 = call i32 @g_slist_length(ptr noundef %47)
  store i32 %48, ptr %16, align 4
  br label %49

49:                                               ; preds = %240, %31
  call void @llvm.lifetime.start.p0(i64 4, ptr %19) #19
  store i32 0, ptr %12, align 4
  br label %50

50:                                               ; preds = %193, %49
  %51 = load i32, ptr %14, align 4
  store i32 %51, ptr %19, align 4
  br label %52

52:                                               ; preds = %196, %50
  %53 = load i32, ptr %19, align 4
  %54 = load i32, ptr %16, align 4
  %55 = icmp slt i32 %53, %54
  br i1 %55, label %56, label %199

56:                                               ; preds = %52
  call void @llvm.lifetime.start.p0(i64 8, ptr %20) #19
  %57 = load ptr, ptr %17, align 8
  %58 = load i32, ptr %19, align 4
  %59 = call ptr @g_slist_nth_data(ptr noundef %57, i32 noundef %58)
  store ptr %59, ptr %20, align 8
  %60 = load ptr, ptr %20, align 8
  %61 = getelementptr inbounds nuw %struct.ndr_pointer_data, ptr %60, i32 0, i32 3
  %62 = load ptr, ptr %61, align 8
  %63 = icmp ne ptr %62, null
  br i1 %63, label %64, label %170

64:                                               ; preds = %56
  call void @llvm.lifetime.start.p0(i64 8, ptr %21) #19
  store ptr null, ptr %21, align 8
  call void @llvm.lifetime.start.p0(i64 8, ptr %22) #19
  %65 = load i32, ptr %19, align 4
  %66 = add i32 %65, 1
  store i32 %66, ptr %14, align 4
  store i32 1, ptr %12, align 4
  %67 = load ptr, ptr %20, align 8
  %68 = getelementptr inbounds nuw %struct.ndr_pointer_data, ptr %67, i32 0, i32 3
  %69 = load ptr, ptr %68, align 8
  store ptr %69, ptr %22, align 8
  %70 = load ptr, ptr %20, align 8
  %71 = getelementptr inbounds nuw %struct.ndr_pointer_data, ptr %70, i32 0, i32 3
  store ptr null, ptr %71, align 8
  %72 = load ptr, ptr %20, align 8
  %73 = getelementptr inbounds nuw %struct.ndr_pointer_data, ptr %72, i32 0, i32 4
  %74 = load i32, ptr %73, align 8
  %75 = load ptr, ptr %10, align 8
  %76 = getelementptr inbounds nuw %struct._dcerpc_info, ptr %75, i32 0, i32 13
  store i32 %74, ptr %76, align 8
  %77 = load ptr, ptr %10, align 8
  %78 = getelementptr inbounds nuw %struct._dcerpc_info, ptr %77, i32 0, i32 4
  store i8 1, ptr %78, align 1
  %79 = load ptr, ptr %10, align 8
  %80 = getelementptr inbounds nuw %struct._dcerpc_info, ptr %79, i32 0, i32 6
  store i32 0, ptr %80, align 4
  %81 = load i32, ptr %9, align 4
  store i32 %81, ptr %13, align 4
  %82 = load ptr, ptr %17, align 8
  store ptr %82, ptr %21, align 8
  %83 = load ptr, ptr %10, align 8
  %84 = getelementptr inbounds nuw %struct._dcerpc_info, ptr %83, i32 0, i32 18
  %85 = getelementptr inbounds nuw %struct.anon, ptr %84, i32 0, i32 1
  store ptr null, ptr %85, align 8
  %86 = load ptr, ptr %22, align 8
  %87 = load ptr, ptr %8, align 8
  %88 = load i32, ptr %9, align 4
  %89 = load ptr, ptr %7, align 8
  %90 = load ptr, ptr %10, align 8
  %91 = load ptr, ptr %11, align 8
  %92 = call i32 %86(ptr noundef %87, i32 noundef %88, ptr noundef %89, ptr noundef null, ptr noundef %90, ptr noundef %91)
  store i32 %92, ptr %9, align 4
  %93 = load i32, ptr %9, align 4
  %94 = load i32, ptr %13, align 4
  %95 = sub i32 %93, %94
  %96 = load ptr, ptr %10, align 8
  %97 = getelementptr inbounds nuw %struct._dcerpc_info, ptr %96, i32 0, i32 6
  %98 = load i32, ptr %97, align 4
  %99 = icmp eq i32 %95, %98
  br i1 %99, label %100, label %101

100:                                              ; preds = %64
  br label %103

101:                                              ; preds = %64
  call void (ptr, ...) @proto_report_dissector_bug(ptr noundef @.str.1, ptr noundef @.str.2, i32 noundef 3078, ptr noundef @.str.12) #24
  unreachable

102:                                              ; No predecessors!
  br label %103

103:                                              ; preds = %102, %100
  %104 = load ptr, ptr %10, align 8
  %105 = getelementptr inbounds nuw %struct._dcerpc_info, ptr %104, i32 0, i32 4
  store i8 0, ptr %105, align 1
  %106 = load i32, ptr %9, align 4
  store i32 %106, ptr %13, align 4
  %107 = load ptr, ptr %22, align 8
  %108 = load ptr, ptr %8, align 8
  %109 = load i32, ptr %9, align 4
  %110 = load ptr, ptr %7, align 8
  %111 = load ptr, ptr %20, align 8
  %112 = getelementptr inbounds nuw %struct.ndr_pointer_data, ptr %111, i32 0, i32 2
  %113 = load ptr, ptr %112, align 8
  %114 = load ptr, ptr %10, align 8
  %115 = load ptr, ptr %11, align 8
  %116 = call i32 %107(ptr noundef %108, i32 noundef %109, ptr noundef %110, ptr noundef %113, ptr noundef %114, ptr noundef %115)
  store i32 %116, ptr %9, align 4
  %117 = load ptr, ptr %20, align 8
  %118 = getelementptr inbounds nuw %struct.ndr_pointer_data, ptr %117, i32 0, i32 5
  %119 = load ptr, ptr %118, align 8
  %120 = icmp ne ptr %119, null
  br i1 %120, label %121, label %139

121:                                              ; preds = %103
  %122 = load ptr, ptr %20, align 8
  %123 = getelementptr inbounds nuw %struct.ndr_pointer_data, ptr %122, i32 0, i32 5
  %124 = load ptr, ptr %123, align 8
  %125 = load ptr, ptr %7, align 8
  %126 = load ptr, ptr %20, align 8
  %127 = getelementptr inbounds nuw %struct.ndr_pointer_data, ptr %126, i32 0, i32 2
  %128 = load ptr, ptr %127, align 8
  %129 = load ptr, ptr %20, align 8
  %130 = getelementptr inbounds nuw %struct.ndr_pointer_data, ptr %129, i32 0, i32 1
  %131 = load ptr, ptr %130, align 8
  %132 = load ptr, ptr %10, align 8
  %133 = load ptr, ptr %8, align 8
  %134 = load i32, ptr %13, align 4
  %135 = load i32, ptr %9, align 4
  %136 = load ptr, ptr %20, align 8
  %137 = getelementptr inbounds nuw %struct.ndr_pointer_data, ptr %136, i32 0, i32 6
  %138 = load ptr, ptr %137, align 8
  call void %124(ptr noundef %125, ptr noundef %128, ptr noundef %131, ptr noundef %132, ptr noundef %133, i32 noundef %134, i32 noundef %135, ptr noundef %138)
  br label %139

139:                                              ; preds = %121, %103
  %140 = load ptr, ptr %20, align 8
  %141 = getelementptr inbounds nuw %struct.ndr_pointer_data, ptr %140, i32 0, i32 1
  %142 = load ptr, ptr %141, align 8
  %143 = load i32, ptr %9, align 4
  %144 = load i32, ptr %13, align 4
  %145 = sub i32 %143, %144
  call void @proto_item_set_len(ptr noundef %142, i32 noundef %145)
  %146 = load ptr, ptr %10, align 8
  %147 = getelementptr inbounds nuw %struct._dcerpc_info, ptr %146, i32 0, i32 18
  %148 = getelementptr inbounds nuw %struct.anon, ptr %147, i32 0, i32 1
  %149 = load ptr, ptr %148, align 8
  %150 = icmp ne ptr %149, null
  br i1 %150, label %151, label %164

151:                                              ; preds = %139
  store i32 0, ptr %14, align 4
  %152 = load ptr, ptr %10, align 8
  %153 = getelementptr inbounds nuw %struct._dcerpc_info, ptr %152, i32 0, i32 18
  %154 = getelementptr inbounds nuw %struct.anon, ptr %153, i32 0, i32 1
  %155 = load ptr, ptr %154, align 8
  %156 = call i32 @g_slist_length(ptr noundef %155)
  store i32 %156, ptr %16, align 4
  %157 = load ptr, ptr %10, align 8
  %158 = getelementptr inbounds nuw %struct._dcerpc_info, ptr %157, i32 0, i32 18
  %159 = getelementptr inbounds nuw %struct.anon, ptr %158, i32 0, i32 1
  %160 = load ptr, ptr %159, align 8
  store ptr %160, ptr %17, align 8
  %161 = load ptr, ptr %10, align 8
  %162 = getelementptr inbounds nuw %struct._dcerpc_info, ptr %161, i32 0, i32 18
  %163 = getelementptr inbounds nuw %struct.anon, ptr %162, i32 0, i32 1
  store ptr null, ptr %163, align 8
  store i32 4, ptr %18, align 4
  br label %167

164:                                              ; preds = %139
  %165 = load ptr, ptr %21, align 8
  store ptr %165, ptr %17, align 8
  br label %166

166:                                              ; preds = %164
  store i32 0, ptr %18, align 4
  br label %167

167:                                              ; preds = %166, %151
  call void @llvm.lifetime.end.p0(i64 8, ptr %22) #19
  call void @llvm.lifetime.end.p0(i64 8, ptr %21) #19
  %168 = load i32, ptr %18, align 4
  switch i32 %168, label %193 [
    i32 0, label %169
  ]

169:                                              ; preds = %167
  br label %170

170:                                              ; preds = %169, %56
  %171 = load i32, ptr %19, align 4
  %172 = load i32, ptr %16, align 4
  %173 = sub i32 %172, 1
  %174 = icmp eq i32 %171, %173
  br i1 %174, label %175, label %192

175:                                              ; preds = %170
  %176 = load ptr, ptr %10, align 8
  %177 = getelementptr inbounds nuw %struct._dcerpc_info, ptr %176, i32 0, i32 18
  %178 = getelementptr inbounds nuw %struct.anon, ptr %177, i32 0, i32 0
  %179 = load i8, ptr %178, align 8, !range !11, !noundef !12
  %180 = trunc i8 %179 to i1
  %181 = zext i1 %180 to i32
  %182 = icmp eq i32 %181, 1
  br i1 %182, label %183, label %192

183:                                              ; preds = %175
  %184 = load ptr, ptr %10, align 8
  %185 = getelementptr inbounds nuw %struct._dcerpc_info, ptr %184, i32 0, i32 18
  %186 = getelementptr inbounds nuw %struct.anon, ptr %185, i32 0, i32 1
  %187 = load ptr, ptr %186, align 8
  %188 = call i32 @g_slist_length(ptr noundef %187)
  store i32 %188, ptr %16, align 4
  %189 = load ptr, ptr %10, align 8
  %190 = getelementptr inbounds nuw %struct._dcerpc_info, ptr %189, i32 0, i32 18
  %191 = getelementptr inbounds nuw %struct.anon, ptr %190, i32 0, i32 0
  store i8 0, ptr %191, align 8
  br label %192

192:                                              ; preds = %183, %175, %170
  store i32 0, ptr %18, align 4
  br label %193

193:                                              ; preds = %192, %167
  call void @llvm.lifetime.end.p0(i64 8, ptr %20) #19
  %194 = load i32, ptr %18, align 4
  switch i32 %194, label %272 [
    i32 0, label %195
    i32 4, label %50
  ]

195:                                              ; preds = %193
  br label %196

196:                                              ; preds = %195
  %197 = load i32, ptr %19, align 4
  %198 = add i32 %197, 1
  store i32 %198, ptr %19, align 4
  br label %52, !llvm.loop !18

199:                                              ; preds = %52
  %200 = load i32, ptr %19, align 4
  %201 = load i32, ptr %16, align 4
  %202 = sub i32 %201, 1
  %203 = icmp sge i32 %200, %202
  br i1 %203, label %204, label %239

204:                                              ; preds = %199
  %205 = load ptr, ptr %10, align 8
  %206 = getelementptr inbounds nuw %struct._dcerpc_info, ptr %205, i32 0, i32 18
  %207 = getelementptr inbounds nuw %struct.anon, ptr %206, i32 0, i32 3
  %208 = load ptr, ptr %207, align 8
  %209 = call i32 @g_slist_length(ptr noundef %208)
  %210 = load i32, ptr %15, align 4
  %211 = icmp ugt i32 %209, %210
  br i1 %211, label %212, label %239

212:                                              ; preds = %204
  call void @llvm.lifetime.start.p0(i64 8, ptr %23) #19
  %213 = load ptr, ptr %17, align 8
  call void @g_slist_free_full(ptr noundef %213, ptr noundef @g_free)
  %214 = load ptr, ptr %10, align 8
  %215 = getelementptr inbounds nuw %struct._dcerpc_info, ptr %214, i32 0, i32 18
  %216 = getelementptr inbounds nuw %struct.anon, ptr %215, i32 0, i32 3
  %217 = load ptr, ptr %216, align 8
  %218 = call ptr @g_slist_last(ptr noundef %217)
  %219 = getelementptr inbounds nuw %struct._GSList, ptr %218, i32 0, i32 0
  %220 = load ptr, ptr %219, align 8
  store ptr %220, ptr %23, align 8
  %221 = load ptr, ptr %10, align 8
  %222 = getelementptr inbounds nuw %struct._dcerpc_info, ptr %221, i32 0, i32 18
  %223 = getelementptr inbounds nuw %struct.anon, ptr %222, i32 0, i32 3
  %224 = load ptr, ptr %223, align 8
  %225 = load ptr, ptr %23, align 8
  %226 = call ptr @g_slist_remove(ptr noundef %224, ptr noundef %225)
  %227 = load ptr, ptr %10, align 8
  %228 = getelementptr inbounds nuw %struct._dcerpc_info, ptr %227, i32 0, i32 18
  %229 = getelementptr inbounds nuw %struct.anon, ptr %228, i32 0, i32 3
  store ptr %226, ptr %229, align 8
  store i32 0, ptr %14, align 4
  %230 = load ptr, ptr %10, align 8
  %231 = getelementptr inbounds nuw %struct._dcerpc_info, ptr %230, i32 0, i32 18
  %232 = getelementptr inbounds nuw %struct.anon, ptr %231, i32 0, i32 3
  %233 = load ptr, ptr %232, align 8
  %234 = call ptr @g_slist_last(ptr noundef %233)
  %235 = getelementptr inbounds nuw %struct._GSList, ptr %234, i32 0, i32 0
  %236 = load ptr, ptr %235, align 8
  store ptr %236, ptr %17, align 8
  %237 = load ptr, ptr %17, align 8
  %238 = call i32 @g_slist_length(ptr noundef %237)
  store i32 %238, ptr %16, align 4
  store i32 1, ptr %12, align 4
  call void @llvm.lifetime.end.p0(i64 8, ptr %23) #19
  br label %239

239:                                              ; preds = %212, %204, %199
  call void @llvm.lifetime.end.p0(i64 4, ptr %19) #19
  br label %240

240:                                              ; preds = %239
  %241 = load i32, ptr %12, align 4
  %242 = icmp ne i32 %241, 0
  br i1 %242, label %49, label %243, !llvm.loop !19

243:                                              ; preds = %240
  %244 = load i32, ptr %15, align 4
  %245 = load ptr, ptr %10, align 8
  %246 = getelementptr inbounds nuw %struct._dcerpc_info, ptr %245, i32 0, i32 18
  %247 = getelementptr inbounds nuw %struct.anon, ptr %246, i32 0, i32 3
  %248 = load ptr, ptr %247, align 8
  %249 = call i32 @g_slist_length(ptr noundef %248)
  %250 = icmp eq i32 %244, %249
  br i1 %250, label %251, label %252

251:                                              ; preds = %243
  br label %254

252:                                              ; preds = %243
  call void (ptr, ...) @proto_report_dissector_bug(ptr noundef @.str.1, ptr noundef @.str.2, i32 noundef 3172, ptr noundef @.str.13) #24
  unreachable

253:                                              ; No predecessors!
  br label %254

254:                                              ; preds = %253, %251
  %255 = load ptr, ptr %10, align 8
  %256 = getelementptr inbounds nuw %struct._dcerpc_info, ptr %255, i32 0, i32 18
  %257 = getelementptr inbounds nuw %struct.anon, ptr %256, i32 0, i32 1
  %258 = load ptr, ptr %257, align 8
  call void @g_slist_free_full(ptr noundef %258, ptr noundef @g_free)
  %259 = load ptr, ptr %10, align 8
  %260 = getelementptr inbounds nuw %struct._dcerpc_info, ptr %259, i32 0, i32 18
  %261 = getelementptr inbounds nuw %struct.anon, ptr %260, i32 0, i32 3
  %262 = load ptr, ptr %261, align 8
  %263 = call ptr @g_slist_last(ptr noundef %262)
  %264 = getelementptr inbounds nuw %struct._GSList, ptr %263, i32 0, i32 0
  %265 = load ptr, ptr %264, align 8
  %266 = load ptr, ptr %10, align 8
  %267 = getelementptr inbounds nuw %struct._dcerpc_info, ptr %266, i32 0, i32 18
  %268 = getelementptr inbounds nuw %struct.anon, ptr %267, i32 0, i32 1
  store ptr %265, ptr %268, align 8
  %269 = load i32, ptr %9, align 4
  store i32 %269, ptr %6, align 4
  store i32 1, ptr %18, align 4
  br label %270

270:                                              ; preds = %254, %29
  call void @llvm.lifetime.end.p0(i64 8, ptr %17) #19
  call void @llvm.lifetime.end.p0(i64 4, ptr %16) #19
  call void @llvm.lifetime.end.p0(i64 4, ptr %15) #19
  call void @llvm.lifetime.end.p0(i64 4, ptr %14) #19
  call void @llvm.lifetime.end.p0(i64 4, ptr %13) #19
  call void @llvm.lifetime.end.p0(i64 4, ptr %12) #19
  %271 = load i32, ptr %6, align 4
  ret i32 %271

272:                                              ; preds = %193
  unreachable
}