; Function Attrs: null_pointer_is_valid sspstrong uwtable
define hidden i32 @dissect_deferred_pointers(ptr noundef %0, ptr noundef %1, i32 noundef %2, ptr noundef %3, ptr noundef %4) local_unnamed_addr #0 {
  %6 = getelementptr inbounds nuw i8, ptr %3, i64 96
  %7 = getelementptr inbounds nuw i8, ptr %3, i64 120
  %8 = load ptr, ptr %7, align 8
  %9 = icmp eq ptr %8, null
  br i1 %9, label %92, label %10

10:                                               ; preds = %5
  %11 = getelementptr inbounds nuw i8, ptr %3, i64 104
  store ptr null, ptr %11, align 8
  %12 = tail call ptr @g_slist_last(ptr noundef nonnull %8)
  %13 = load ptr, ptr %12, align 8
  %14 = load ptr, ptr %7, align 8
  %15 = tail call i32 @g_slist_length(ptr noundef %14)
  %16 = tail call i32 @g_slist_length(ptr noundef %13)
  %17 = getelementptr inbounds nuw i8, ptr %3, i64 56
  %18 = getelementptr inbounds nuw i8, ptr %3, i64 25
  %19 = getelementptr inbounds nuw i8, ptr %3, i64 28
  br label %20

20:                                               ; preds = %81, %10
  %.0105 = phi i32 [ 0, %10 ], [ %.6111, %81 ]
  %.098 = phi i32 [ %16, %10 ], [ %.7, %81 ]
  %.093 = phi ptr [ %13, %10 ], [ %.6, %81 ]
  %.084 = phi i32 [ %2, %10 ], [ %.2.lcssa, %81 ]
  %21 = icmp slt i32 %.0105, %.098
  br i1 %21, label %.lr.ph, label %._crit_edge

.lr.ph:                                           ; preds = %20, %60
  %.1169 = phi i32 [ %38, %60 ], [ %.084, %20 ]
  %.085168 = phi i32 [ 1, %60 ], [ 0, %20 ]
  %.194167 = phi ptr [ %62, %60 ], [ %.093, %20 ]
  %.199166 = phi i32 [ %61, %60 ], [ %.098, %20 ]
  %.1106165 = phi i32 [ 0, %60 ], [ %.0105, %20 ]
  br label %22

22:                                               ; preds = %.lr.ph, %64
  %.2152 = phi i32 [ %.1169, %.lr.ph ], [ %.3, %64 ]
  %.186151 = phi i32 [ %.085168, %.lr.ph ], [ %.287, %64 ]
  %.090150 = phi i32 [ %.1106165, %.lr.ph ], [ %65, %64 ]
  %.2100149 = phi i32 [ %.199166, %.lr.ph ], [ %.5103.ph, %64 ]
  %.2107148 = phi i32 [ %.1106165, %.lr.ph ], [ %.3108, %64 ]
  %23 = tail call ptr @g_slist_nth_data(ptr noundef %.194167, i32 noundef %.090150)
  %24 = getelementptr inbounds nuw i8, ptr %23, i64 24
  %25 = load ptr, ptr %24, align 8
  %.not116 = icmp eq ptr %25, null
  br i1 %.not116, label %.thread, label %26

26:                                               ; preds = %22
  %27 = add nsw i32 %.090150, 1
  store ptr null, ptr %24, align 8
  %28 = getelementptr inbounds nuw i8, ptr %23, i64 32
  %29 = load i32, ptr %28, align 8
  store i32 %29, ptr %17, align 8
  store i8 1, ptr %18, align 1
  store i32 0, ptr %19, align 4
  store ptr null, ptr %11, align 8
  %30 = tail call i32 %25(ptr noundef %1, i32 noundef %.2152, ptr noundef %0, ptr noundef null, ptr noundef %3, ptr noundef %4)
  %31 = sub i32 %30, %.2152
  %32 = load i32, ptr %19, align 4
  %33 = icmp eq i32 %31, %32
  br i1 %33, label %35, label %34

34:                                               ; preds = %26
  tail call void (ptr, ...) @proto_report_dissector_bug(ptr noundef nonnull @.str.1, ptr noundef nonnull @.str.2, i32 noundef 3078, ptr noundef nonnull @.str.12) #21
  unreachable

35:                                               ; preds = %26
  store i8 0, ptr %18, align 1
  %36 = getelementptr inbounds nuw i8, ptr %23, i64 16
  %37 = load ptr, ptr %36, align 8
  %38 = tail call i32 %25(ptr noundef %1, i32 noundef %30, ptr noundef %0, ptr noundef %37, ptr noundef %3, ptr noundef %4)
  %39 = getelementptr inbounds nuw i8, ptr %23, i64 40
  %40 = load ptr, ptr %39, align 8
  %.not117 = icmp eq ptr %40, null
  br i1 %.not117, label %47, label %41

41:                                               ; preds = %35
  %42 = load ptr, ptr %36, align 8
  %43 = getelementptr inbounds nuw i8, ptr %23, i64 8
  %44 = load ptr, ptr %43, align 8
  %45 = getelementptr inbounds nuw i8, ptr %23, i64 48
  %46 = load ptr, ptr %45, align 8
  tail call void %40(ptr noundef %0, ptr noundef %42, ptr noundef %44, ptr noundef %3, ptr noundef %1, i32 noundef %30, i32 noundef %38, ptr noundef %46)
  br label %47

47:                                               ; preds = %41, %35
  %48 = getelementptr inbounds nuw i8, ptr %23, i64 8
  %49 = load ptr, ptr %48, align 8
  %50 = sub i32 %38, %30
  tail call void @proto_item_set_len(ptr noundef %49, i32 noundef %50)
  %51 = load ptr, ptr %11, align 8
  %.not118 = icmp eq ptr %51, null
  br i1 %.not118, label %.thread, label %60

.thread:                                          ; preds = %47, %22
  %.3108 = phi i32 [ %.2107148, %22 ], [ %27, %47 ]
  %.287 = phi i32 [ %.186151, %22 ], [ 1, %47 ]
  %.3 = phi i32 [ %.2152, %22 ], [ %38, %47 ]
  %52 = add nsw i32 %.2100149, -1
  %53 = icmp eq i32 %.090150, %52
  br i1 %53, label %54, label %64

54:                                               ; preds = %.thread
  %55 = load i8, ptr %6, align 8, !range !11, !noundef !12
  %56 = trunc nuw i8 %55 to i1
  br i1 %56, label %57, label %64

57:                                               ; preds = %54
  %58 = load ptr, ptr %11, align 8
  %59 = tail call i32 @g_slist_length(ptr noundef %58)
  store i8 0, ptr %6, align 8
  br label %64

60:                                               ; preds = %47
  %61 = tail call i32 @g_slist_length(ptr noundef nonnull %51)
  %62 = load ptr, ptr %11, align 8
  store ptr null, ptr %11, align 8
  %63 = icmp sgt i32 %61, 0
  br i1 %63, label %.lr.ph, label %._crit_edge

64:                                               ; preds = %57, %54, %.thread
  %.5103.ph = phi i32 [ %.2100149, %.thread ], [ %.2100149, %54 ], [ %59, %57 ]
  %65 = add nsw i32 %.090150, 1
  %66 = icmp slt i32 %65, %.5103.ph
  br i1 %66, label %22, label %._crit_edge, !llvm.loop !18

._crit_edge:                                      ; preds = %60, %64, %20
  %.194.lcssa = phi ptr [ %.093, %20 ], [ %.194167, %64 ], [ %62, %60 ]
  %.2107.lcssa = phi i32 [ %.0105, %20 ], [ %.3108, %64 ], [ 0, %60 ]
  %.2100.lcssa = phi i32 [ %.098, %20 ], [ %.5103.ph, %64 ], [ %61, %60 ]
  %.090.lcssa = phi i32 [ %.0105, %20 ], [ %65, %64 ], [ 0, %60 ]
  %.186.lcssa = phi i32 [ 0, %20 ], [ %.287, %64 ], [ 1, %60 ]
  %.2.lcssa = phi i32 [ %.084, %20 ], [ %.3, %64 ], [ %38, %60 ]
  %67 = add i32 %.2100.lcssa, -1
  %.not = icmp slt i32 %.090.lcssa, %67
  br i1 %.not, label %81, label %68

68:                                               ; preds = %._crit_edge
  %69 = load ptr, ptr %7, align 8
  %70 = tail call i32 @g_slist_length(ptr noundef %69)
  %71 = icmp ugt i32 %70, %15
  br i1 %71, label %72, label %81

72:                                               ; preds = %68
  tail call void @g_slist_free_full(ptr noundef %.194.lcssa, ptr noundef nonnull @g_free)
  %73 = load ptr, ptr %7, align 8
  %74 = tail call ptr @g_slist_last(ptr noundef %73)
  %75 = load ptr, ptr %74, align 8
  %76 = load ptr, ptr %7, align 8
  %77 = tail call ptr @g_slist_remove(ptr noundef %76, ptr noundef %75)
  store ptr %77, ptr %7, align 8
  %78 = tail call ptr @g_slist_last(ptr noundef %77)
  %79 = load ptr, ptr %78, align 8
  %80 = tail call i32 @g_slist_length(ptr noundef %79)
  br label %81

81:                                               ; preds = %72, %68, %._crit_edge
  %.6111 = phi i32 [ 0, %72 ], [ %.2107.lcssa, %68 ], [ %.2107.lcssa, %._crit_edge ]
  %.7 = phi i32 [ %80, %72 ], [ %.2100.lcssa, %68 ], [ %.2100.lcssa, %._crit_edge ]
  %.6 = phi ptr [ %79, %72 ], [ %.194.lcssa, %68 ], [ %.194.lcssa, %._crit_edge ]
  %.489 = phi i32 [ 1, %72 ], [ %.186.lcssa, %68 ], [ %.186.lcssa, %._crit_edge ]
  %.not115 = icmp eq i32 %.489, 0
  br i1 %.not115, label %82, label %20, !llvm.loop !19

82:                                               ; preds = %81
  %83 = load ptr, ptr %7, align 8
  %84 = tail call i32 @g_slist_length(ptr noundef %83)
  %85 = icmp eq i32 %15, %84
  br i1 %85, label %87, label %86

86:                                               ; preds = %82
  tail call void (ptr, ...) @proto_report_dissector_bug(ptr noundef nonnull @.str.1, ptr noundef nonnull @.str.2, i32 noundef 3172, ptr noundef nonnull @.str.13) #21
  unreachable

87:                                               ; preds = %82
  %88 = load ptr, ptr %11, align 8
  tail call void @g_slist_free_full(ptr noundef %88, ptr noundef nonnull @g_free)
  %89 = load ptr, ptr %7, align 8
  %90 = tail call ptr @g_slist_last(ptr noundef %89)
  %91 = load ptr, ptr %90, align 8
  store ptr %91, ptr %11, align 8
  br label %92

92:                                               ; preds = %5, %87
  %.0 = phi i32 [ %.2.lcssa, %87 ], [ %2, %5 ]
  ret i32 %.0
}